target datalayout = "e-m:e-p270:32:32-p271:32:32-p272:64:64-i64:64-i128:128-f80:128-n8:16:32:64-S128"
target triple = "x86_64-pc-linux-gnu"

%struct.tms = type { i64, i64, i64, i64 }
%"class.boost::chrono::time_point.5" = type { %"class.boost::chrono::duration.6" }
%"class.boost::chrono::duration.6" = type { %"struct.boost::chrono::process_times" }
%"struct.boost::chrono::process_times" = type { i64, i64, i64 }

; Function Attrs: mustprogress nounwind uwtable
define linkonce_odr hidden void @_ZN5boost6chrono13process_timesIlEC2Ev(ptr noundef nonnull align 8 dereferenceable(24) %0) unnamed_addr #2 comdat align 2 {
  %2 = alloca ptr, align 8
  store ptr %0, ptr %2, align 8, !tbaa !7
  %3 = load ptr, ptr %2, align 8
  %4 = getelementptr inbounds nuw %"struct.boost::chrono::process_times", ptr %3, i32 0, i32 0
  store i64 0, ptr %4, align 8, !tbaa !28
  %5 = getelementptr inbounds nuw %"struct.boost::chrono::process_times", ptr %3, i32 0, i32 1
  store i64 0, ptr %5, align 8, !tbaa !30
  %6 = getelementptr inbounds nuw %"struct.boost::chrono::process_times", ptr %3, i32 0, i32 2
  store i64 0, ptr %6, align 8, !tbaa !31
  ret void
}

; Function Attrs: mustprogress uwtable
define linkonce_odr hidden void @_ZN5boost6chrono15duration_valuesINS0_13process_timesIlEEE4zeroEv(ptr dead_on_unwind noalias writable sret(%"struct.boost::chrono::process_times") align 8 %0) #5 comdat align 2 {
  call void @_ZN5boost6chrono13process_timesIlEC2Ev(ptr noundef nonnull align 8 dereferenceable(24) %0)
  ret void
}

; Function Attrs: mustprogress uwtable
define linkonce_odr hidden void @_ZN5boost6chrono8durationINS0_13process_timesIlEESt5ratioILl1ELl1000000000EEE4zeroEv(ptr dead_on_unwind noalias writable sret(%"class.boost::chrono::duration.6") align 8 %0) #5 comdat align 2 {
  %2 = alloca %"struct.boost::chrono::process_times", align 8
  call void @llvm.lifetime.start.p0(i64 24, ptr %2) #19
  call void @_ZN5boost6chrono15duration_valuesINS0_13process_timesIlEEE4zeroEv(ptr dead_on_unwind writable sret(%"struct.boost::chrono::process_times") align 8 %2)
  call void @_ZN5boost6chrono8durationINS0_13process_timesIlEESt5ratioILl1ELl1000000000EEEC2IS3_EERKT_PNS_9enable_ifINS_3mpl4and_INS_14is_convertibleIS8_S3_EENSC_3or_INS0_23treat_as_floating_pointIS3_EENSD_INSC_4not_ISI_EENSJ_INSH_IS8_EEEEN4mpl_5bool_ILb1EEESP_SP_EENSO_ILb0EEESR_SR_EESP_SP_SP_EEvE4typeE(ptr noundef nonnull align 8 dereferenceable(24) %0, ptr noundef nonnull align 8 dereferenceable(24) %2, ptr noundef null)
  call void @llvm.lifetime.end.p0(i64 24, ptr %2) #19
  ret void
}

; Function Attrs: noinline noreturn nounwind uwtable
define linkonce_odr hidden void @__clang_call_terminate(ptr noundef %0) #3 comdat {
  %2 = call ptr @__cxa_begin_catch(ptr %0) #19
  call void @_ZSt9terminatev() #20
  unreachable
}

; Function Attrs: alwaysinline mustprogress uwtable
define linkonce_odr hidden void @_ZN5boost6chrono10time_pointINS0_17process_cpu_clockENS0_8durationINS0_13process_timesIlEESt5ratioILl1ELl1000000000EEEEEC2Ev(ptr noundef nonnull align 8 dereferenceable(24) %0) unnamed_addr #8 comdat align 2 {
  %2 = alloca ptr, align 8
  store ptr %0, ptr %2, align 8, !tbaa !7
  %3 = load ptr, ptr %2, align 8
  %4 = getelementptr inbounds nuw %"class.boost::chrono::time_point.5", ptr %3, i32 0, i32 0
  call void @_ZN5boost6chrono8durationINS0_13process_timesIlEESt5ratioILl1ELl1000000000EEE4zeroEv(ptr dead_on_unwind writable sret(%"class.boost::chrono::duration.6") align 8 %4)
  ret void
}

; Function Attrs: alwaysinline mustprogress nounwind uwtable
define linkonce_odr hidden void @_ZN5boost6chrono10time_pointINS0_17process_cpu_clockENS0_8durationINS0_13process_timesIlEESt5ratioILl1ELl1000000000EEEEEC2ERKS8_(ptr noundef nonnull align 8 dereferenceable(24) %0, ptr noundef nonnull align 8 dereferenceable(24) %1) unnamed_addr #7 comdat align 2 {
  %3 = alloca ptr, align 8
  %4 = alloca ptr, align 8
  store ptr %0, ptr %3, align 8, !tbaa !7
  store ptr %1, ptr %4, align 8, !tbaa !7
  %5 = load ptr, ptr %3, align 8
  %6 = getelementptr inbounds nuw %"class.boost::chrono::time_point.5", ptr %5, i32 0, i32 0
  %7 = load ptr, ptr %4, align 8, !tbaa !7
  call void @llvm.memcpy.p0.p0.i64(ptr align 8 %6, ptr align 8 %7, i64 24, i1 false)
  ret void
}

; Function Attrs: alwaysinline mustprogress nounwind uwtable
define linkonce_odr hidden void @_ZN5boost6chrono8durationINS0_13process_timesIlEESt5ratioILl1ELl1000000000EEEC2IS3_EERKT_PNS_9enable_ifINS_3mpl4and_INS_14is_convertibleIS8_S3_EENSC_3or_INS0_23treat_as_floating_pointIS3_EENSD_INSC_4not_ISI_EENSJ_INSH_IS8_EEEEN4mpl_5bool_ILb1EEESP_SP_EENSO_ILb0EEESR_SR_EESP_SP_SP_EEvE4typeE(ptr noundef nonnull align 8 dereferenceable(24) %0, ptr noundef nonnull align 8 dereferenceable(24) %1, ptr noundef %2) unnamed_addr #7 comdat align 2 {
  %4 = alloca ptr, align 8
  %5 = alloca ptr, align 8
  %6 = alloca ptr, align 8
  store ptr %0, ptr %4, align 8, !tbaa !7
  store ptr %1, ptr %5, align 8, !tbaa !7
  store ptr %2, ptr %6, align 8, !tbaa !7
  %7 = load ptr, ptr %4, align 8
  %8 = getelementptr inbounds nuw %"class.boost::chrono::duration.6", ptr %7, i32 0, i32 0
  %9 = load ptr, ptr %5, align 8, !tbaa !7
  call void @llvm.memcpy.p0.p0.i64(ptr align 8 %8, ptr align 8 %9, i64 24, i1 false)
  ret void
}

; Function Attrs: mustprogress nounwind uwtable
define linkonce_odr hidden void @_ZN5boost6chrono13process_timesIlEC2Elll(ptr noundef nonnull align 8 dereferenceable(24) %0, i64 noundef %1, i64 noundef %2, i64 noundef %3) unnamed_addr #2 comdat align 2 {
  %5 = alloca ptr, align 8
  %6 = alloca i64, align 8
  %7 = alloca i64, align 8
  %8 = alloca i64, align 8
  store ptr %0, ptr %5, align 8, !tbaa !7
  store i64 %1, ptr %6, align 8, !tbaa !16
  store i64 %2, ptr %7, align 8, !tbaa !16
  store i64 %3, ptr %8, align 8, !tbaa !16
  %9 = load ptr, ptr %5, align 8
  %10 = getelementptr inbounds nuw %"struct.boost::chrono::process_times", ptr %9, i32 0, i32 0
  %11 = load i64, ptr %6, align 8, !tbaa !16
  store i64 %11, ptr %10, align 8, !tbaa !28
  %12 = getelementptr inbounds nuw %"struct.boost::chrono::process_times", ptr %9, i32 0, i32 1
  %13 = load i64, ptr %7, align 8, !tbaa !16
  store i64 %13, ptr %12, align 8, !tbaa !30
  %14 = getelementptr inbounds nuw %"struct.boost::chrono::process_times", ptr %9, i32 0, i32 2
  %15 = load i64, ptr %8, align 8, !tbaa !16
  store i64 %15, ptr %14, align 8, !tbaa !31
  ret void
}

; Function Attrs: inlinehint mustprogress nounwind uwtable
define linkonce_odr hidden noundef i64 @_ZN5boost6chrono13chrono_detail11tick_factorEv() #1 comdat {
  %1 = alloca i64, align 8
  call void @llvm.lifetime.start.p0(i64 8, ptr %1) #19
  store i64 0, ptr %1, align 8, !tbaa !16
  %2 = load i64, ptr %1, align 8, !tbaa !16
  %3 = icmp ne i64 %2, 0
  br i1 %3, label %16, label %4

4:                                                ; preds = %0
  %5 = call i64 @sysconf(i32 noundef 2) #19
  store i64 %5, ptr %1, align 8, !tbaa !16
  %6 = icmp sle i64 %5, 0
  br i1 %6, label %7, label %8

7:                                                ; preds = %4
  store i64 -1, ptr %1, align 8, !tbaa !16
  br label %15

8:                                                ; preds = %4
  %9 = load i64, ptr %1, align 8, !tbaa !16
  %10 = sdiv i64 1000000000, %9
  store i64 %10, ptr %1, align 8, !tbaa !16
  %11 = load i64, ptr %1, align 8, !tbaa !16
  %12 = icmp ne i64 %11, 0
  br i1 %12, label %14, label %13

13:                                               ; preds = %8
  store i64 -1, ptr %1, align 8, !tbaa !16
  br label %14

14:                                               ; preds = %13, %8
  br label %15

15:                                               ; preds = %14, %7
  br label %16

16:                                               ; preds = %15, %0
  %17 = load i64, ptr %1, align 8, !tbaa !16
  call void @llvm.lifetime.end.p0(i64 8, ptr %1) #19
  ret i64 %17
}

; Function Attrs: mustprogress nounwind uwtable
define void @_ZN5boost6chrono17process_cpu_clock3nowEv(ptr dead_on_unwind noalias writable sret(%"class.boost::chrono::time_point.5") align 8 %0) #2 align 2 personality ptr @__gxx_personality_v0 {
  %2 = alloca %struct.tms, align 8
  %3 = alloca i64, align 8
  %4 = alloca i64, align 8
  %5 = alloca %"struct.boost::chrono::process_times", align 8
  %6 = alloca %"class.boost::chrono::duration.6", align 8
  %7 = alloca i32, align 4
  call void @llvm.lifetime.start.p0(i64 32, ptr %2) #19
  call void @llvm.lifetime.start.p0(i64 8, ptr %3) #19
  %8 = call i64 @times(ptr noundef %2) #19
  store i64 %8, ptr %3, align 8, !tbaa !16
  %9 = load i64, ptr %3, align 8, !tbaa !16
  %10 = icmp eq i64 %9, -1
  br i1 %10, label %11, label %12

11:                                               ; preds = %1
  br label %43

12:                                               ; preds = %1
  call void @llvm.lifetime.start.p0(i64 8, ptr %4) #19
  %13 = invoke noundef i64 @_ZN5boost6chrono13chrono_detail11tick_factorEv()
          to label %14 unwind label %46

14:                                               ; preds = %12
  store i64 %13, ptr %4, align 8, !tbaa !16
  %15 = load i64, ptr %4, align 8, !tbaa !16
  %16 = icmp ne i64 %15, -1
  br i1 %16, label %17, label %38

17:                                               ; preds = %14
  call void @llvm.lifetime.start.p0(i64 24, ptr %5) #19
  %18 = load i64, ptr %3, align 8, !tbaa !16
  %19 = load i64, ptr %4, align 8, !tbaa !16
  %20 = mul nsw i64 %18, %19
  %21 = getelementptr inbounds nuw %struct.tms, ptr %2, i32 0, i32 0
  %22 = load i64, ptr %21, align 8, !tbaa !23
  %23 = getelementptr inbounds nuw %struct.tms, ptr %2, i32 0, i32 2
  %24 = load i64, ptr %23, align 8, !tbaa !25
  %25 = add nsw i64 %22, %24
  %26 = load i64, ptr %4, align 8, !tbaa !16
  %27 = mul nsw i64 %25, %26
  %28 = getelementptr inbounds nuw %struct.tms, ptr %2, i32 0, i32 1
  %29 = load i64, ptr %28, align 8, !tbaa !26
  %30 = getelementptr inbounds nuw %struct.tms, ptr %2, i32 0, i32 3
  %31 = load i64, ptr %30, align 8, !tbaa !27
  %32 = add nsw i64 %29, %31
  %33 = load i64, ptr %4, align 8, !tbaa !16
  %34 = mul nsw i64 %32, %33
  invoke void @_ZN5boost6chrono13process_timesIlEC2Elll(ptr noundef nonnull align 8 dereferenceable(24) %5, i64 noundef %20, i64 noundef %27, i64 noundef %34)
          to label %35 unwind label %46

35:                                               ; preds = %17
  call void @llvm.lifetime.start.p0(i64 24, ptr %6) #19
  invoke void @_ZN5boost6chrono8durationINS0_13process_timesIlEESt5ratioILl1ELl1000000000EEEC2IS3_EERKT_PNS_9enable_ifINS_3mpl4and_INS_14is_convertibleIS8_S3_EENSC_3or_INS0_23treat_as_floating_pointIS3_EENSD_INSC_4not_ISI_EENSJ_INSH_IS8_EEEEN4mpl_5bool_ILb1EEESP_SP_EENSO_ILb0EEESR_SR_EESP_SP_SP_EEvE4typeE(ptr noundef nonnull align 8 dereferenceable(24) %6, ptr noundef nonnull align 8 dereferenceable(24) %5, ptr noundef null)
          to label %36 unwind label %46

36:                                               ; preds = %35
  invoke void @_ZN5boost6chrono10time_pointINS0_17process_cpu_clockENS0_8durationINS0_13process_timesIlEESt5ratioILl1ELl1000000000EEEEEC2ERKS8_(ptr noundef nonnull align 8 dereferenceable(24) %0, ptr noundef nonnull align 8 dereferenceable(24) %6)
          to label %37 unwind label %46

37:                                               ; preds = %36
  call void @llvm.lifetime.end.p0(i64 24, ptr %6) #19
  store i32 1, ptr %7, align 4
  call void @llvm.lifetime.end.p0(i64 24, ptr %5) #19
  br label %40

38:                                               ; preds = %14
  br label %39

39:                                               ; preds = %38
  store i32 0, ptr %7, align 4
  br label %40

40:                                               ; preds = %39, %37
  call void @llvm.lifetime.end.p0(i64 8, ptr %4) #19
  %41 = load i32, ptr %7, align 4
  switch i32 %41, label %45 [
    i32 0, label %42
  ]

42:                                               ; preds = %40
  br label %43

43:                                               ; preds = %42, %11
  invoke void @_ZN5boost6chrono10time_pointINS0_17process_cpu_clockENS0_8durationINS0_13process_timesIlEESt5ratioILl1ELl1000000000EEEEEC2Ev(ptr noundef nonnull align 8 dereferenceable(24) %0)
          to label %44 unwind label %46

44:                                               ; preds = %43
  store i32 1, ptr %7, align 4
  br label %45

45:                                               ; preds = %44, %40
  call void @llvm.lifetime.end.p0(i64 8, ptr %3) #19
  call void @llvm.lifetime.end.p0(i64 32, ptr %2) #19
  ret void

46:                                               ; preds = %43, %36, %35, %17, %12
  %47 = landingpad { ptr, i32 }
          catch ptr null
  %48 = extractvalue { ptr, i32 } %47, 0
  call void @__clang_call_terminate(ptr %48) #20
  unreachable
}