; Function Attrs: mustprogress nounwind uwtable
define void @_ZN5boost6chrono17process_cpu_clock3nowEv(ptr dead_on_unwind noalias nocapture writable writeonly sret(%"class.boost::chrono::time_point.5") align 8 %0) local_unnamed_addr #4 align 2 personality ptr @__gxx_personality_v0 {
  %2 = alloca %struct.tms, align 8
  call void @llvm.lifetime.start.p0(i64 32, ptr nonnull %2) #23
  %3 = call i64 @times(ptr noundef nonnull %2) #23
  %4 = icmp eq i64 %3, -1
  br i1 %4, label %_ZN5boost6chrono10time_pointINS0_17process_cpu_clockENS0_8durationINS0_13process_timesIlEESt5ratioILl1ELl1000000000EEEEEC2Ev.exit, label %5

5:                                                ; preds = %1
  %6 = tail call i64 @sysconf(i32 noundef 2) #23
  %7 = add i64 %6, -1000000001
  %or.cond = icmp ult i64 %7, -1000000000
  br i1 %or.cond, label %_ZN5boost6chrono10time_pointINS0_17process_cpu_clockENS0_8durationINS0_13process_timesIlEESt5ratioILl1ELl1000000000EEEEEC2Ev.exit, label %_ZN5boost6chrono13chrono_detail11tick_factorEv.exit

_ZN5boost6chrono13chrono_detail11tick_factorEv.exit: ; preds = %5
  %.rhs.trunc = trunc nuw i64 %6 to i32
  %8 = udiv i32 1000000000, %.rhs.trunc
  %.zext = zext nneg i32 %8 to i64
  %9 = mul nsw i64 %3, %.zext
  %10 = load i64, ptr %2, align 8, !tbaa !31
  %11 = getelementptr inbounds nuw i8, ptr %2, i64 16
  %12 = load i64, ptr %11, align 8, !tbaa !33
  %13 = add nsw i64 %12, %10
  %14 = mul nsw i64 %13, %.zext
  %15 = getelementptr inbounds nuw i8, ptr %2, i64 8
  %16 = load i64, ptr %15, align 8, !tbaa !34
  %17 = getelementptr inbounds nuw i8, ptr %2, i64 24
  %18 = load i64, ptr %17, align 8, !tbaa !35
  %19 = add nsw i64 %18, %16
  %20 = mul nsw i64 %19, %.zext
  store i64 %9, ptr %0, align 8
  %.sroa.0.sroa.4.0..sroa_idx = getelementptr inbounds i8, ptr %0, i64 8
  store i64 %14, ptr %.sroa.0.sroa.4.0..sroa_idx, align 8
  %.sroa.0.sroa.5.0..sroa_idx = getelementptr inbounds i8, ptr %0, i64 16
  store i64 %20, ptr %.sroa.0.sroa.5.0..sroa_idx, align 8
  br label %21

_ZN5boost6chrono10time_pointINS0_17process_cpu_clockENS0_8durationINS0_13process_timesIlEESt5ratioILl1ELl1000000000EEEEEC2Ev.exit: ; preds = %5, %1
  tail call void @llvm.memset.p0.i64(ptr noundef nonnull align 8 dereferenceable(24) %0, i8 0, i64 24, i1 false), !alias.scope !36
  br label %21

21:                                               ; preds = %_ZN5boost6chrono10time_pointINS0_17process_cpu_clockENS0_8durationINS0_13process_timesIlEESt5ratioILl1ELl1000000000EEEEEC2Ev.exit, %_ZN5boost6chrono13chrono_detail11tick_factorEv.exit
  call void @llvm.lifetime.end.p0(i64 32, ptr nonnull %2) #23
  ret void
}